(lp0
(lp1
VITF data of Bakerville
p2
aS''
p3
aI2
aI1
aVTotal
p4
aa(lp5
VFilled?
p6
aI2
aI1
aI1
ag3
aa(lp7
g3
aVAverage
p8
aV2017WW52
p9
aV2017WW50
p10
ag3
aa(lp11
VSave Test Case based on this week's Test case pool
p12
aS'16.90%'
p13
aS'34%'
p14
aS'0%'
p15
ag3
aa(lp16
VMiss Sightings in test plan comparing to test result (%)?
p17
aS'0.00%'
p18
aS'0%'
p19
aS'0%'
p20
ag3
aa(lp21
VMiss Sightings in test plan comparing to test result?
p22
aS'0.00'
p23
aI0
aI0
aI0
aa(lp24
VTotal Sighting
p25
aS'0.00'
p26
aI0
aI0
aI0
aa.