(lp0
(lp1
VSelected(z = threshold value)?
p2
aVBakerville Plan 2017WW52
p3
aS''
p4
ag4
aa(lp5
VSTART
p6
aVDomain
p7
aVCategory
p8
aVCase
p9
aa(lp10
I01
aV1
p11
aVBKC
p12
aVLoadGen Server Stress - Start Test for Server
p13
aa(lp14
I01
aVDPDK
p15
aVBKC
p16
aVPI_DPDK_TrafficGenerator_L
p17
aa(lp18
I01
aVDPDK
p19
aVBKC
p20
aVPI_DPDK_DTS_L
p21
aa(lp22
I01
aVDPDK
p23
aVBKC
p24
aVPI_DPDK_PollingModeDriver_L
p25
aa(lp26
I01
aVDPDK
p27
aVBKC
p28
aVPI_DPDK_VFIO_L
p29
aa(lp30
V
p31
aVManageability
p32
aVBKC
p33
aVPI_Manageability_SPS_NM_PowerStatistics_O
p34
aa(lp35
g31
aVManageability
p36
aVBKC
p37
aVPI_Manageability_SPS_Tools_FPTandFIT_W
p38
aa(lp39
g31
aVManageability
p40
aVBKC
p41
aVPI_Manageability_SPS_NM_CUPS_O
p42
aa(lp43
I01
aVManageability
p44
aVBKC
p45
aVPI_Manageability_SPS_NM_ACPI40_OSPM_W
p46
aa(lp47
g31
aVManageability
p48
aVBKC
p49
aVPI_Manageability_SPS_NM_PolicyPowerLimit_O
p50
aa(lp51
I01
aVManageability
p52
aVBKC
p53
aVPI_Manageability_SPS_Tools_MESDC_W
p54
aa(lp55
g31
aVManageability
p56
aVBKC
p57
aVPI_Manageability_SPS_Tools_SPSManuf_O
p58
aa(lp59
g31
aVManageability
p60
aVBKC
p61
aVPI_Manageability_SPS_Tools_SPSInfo_O
p62
aa(lp63
I01
aVManageability
p64
aVBKC
p65
aVPI_Manageability_SPS_NM_PTStates_O
p66
aa(lp67
I01
aVManageability
p68
aVBKC
p69
aVPI_Manageability_SPS_SiEn_PowerFlows_G3Moff_S0M0_O
p70
aa(lp71
I01
aVMemory
p72
aVBKC
p73
aVPI_Memory_DDR4_DIMMMaximumMemory_L
p74
aa(lp75
I01
aVMemory
p76
aVBKC
p77
aVPI_Memory_DDR4_DIMMMaximumMemory_W
p78
aa(lp79
I01
aVMemory
p80
aVBKC
p81
aVPI_Memory_DDR4_MemoryInfo_W
p82
aa(lp83
I01
aVMemory
p84
aVBKC
p85
aVPI_Memory_DDR4_MemoryInfo_L
p86
aa(lp87
I01
aVNetworking
p88
aVBKC
p89
aVPI_Networking_FortPark_DriverInstallUninstall_W
p90
aa(lp91
I01
aVNetworking
p92
aVBKC
p93
aVPI_Networking_FortPark_DriverInstallUninstall_L
p94
aa(lp95
I01
aVNetworking
p96
aVBKC
p97
aVPI_Networking_FortPark_SRIOV_W
p98
aa(lp99
I01
aVNetworking
p100
aVBKC
p101
aVPI_Networking_FortPark_ConnectivityEnableDisable_W
p102
aa(lp103
g31
aVNetworking
p104
aVBKC
p105
aVPI_Networking_JacksonVille_PXE_L
p106
aa(lp107
I01
aVNetworking
p108
aVBKC
p109
aVPI_Networking_FortPark_ConnectivityEnableDisable_L
p110
aa(lp111
I01
aVNetworking
p112
aVBKC
p113
aVPI_Networking_FortPark_SRIOVCheckDevice_L
p114
aa(lp115
I01
aVNetworking
p116
aVBKC
p117
aVPI_Networking_FortPark_BondingFaultTolerance_L
p118
aa(lp119
I01
aVNetworking
p120
aVBKC
p121
aVPI_Networking_JacksonVille_DriverInstallUninstall_L
p122
aa(lp123
I01
aVNetworking
p124
aVBKC
p125
aVPI_Networking_JacksonVille_DriverInstallUninstall_W
p126
aa(lp127
g31
aVNetworking
p128
aVBKC
p129
aVPI_Networking_JacksonVille_ConnectivityEnableDisable_L
p130
aa(lp131
g31
aVNetworking
p132
aVBKC
p133
aVPI_Networking_JacksonVille_ConnectivityEnableDisable_W
p134
aa(lp135
g31
aVNetworking
p136
aVBKC
p137
aVPI_Networking_JacksonVille_LinkLED_W
p138
aa(lp139
I01
aVNetworking
p140
aVBKC
p141
aVPI_Networking_FortPark_PXE_L
p142
aa(lp143
g31
aVNetworking
p144
aVBKC
p145
aVPI_Networking_JacksonVille_LinkLED_L
p146
aa(lp147
I01
aVNetworking
p148
aVBKC
p149
aVPI_Networking_FortPark_LinkLED_W
p150
aa(lp151
I01
aVNetworking
p152
aVBKC
p153
aVPI_Networking_FortPark_LinkLED_L
p154
aa(lp155
g31
aVPCIe
p156
aVBKC
p157
aVPI_PCIe_GPGPUAPModelPowerManagement_W
p158
aa(lp159
I01
aVPCIe
p160
aVBKC
p161
aVPI_PCIe_PCIModelAvailability_W
p162
aa(lp163
I01
aVPCIe
p164
aVBKC
p165
aVPI_PCIe_PCIModelAvailability_L
p166
aa(lp167
g31
aVPCIe
p168
aVBKC
p169
aVPI_PCIe_GPGPUAPModelPowerManagement_L
p170
aa(lp171
g31
aVPCIe
p172
aVBKC
p173
aVPI_PCIe_GPGPUAPModelDriverInstallUninstall_W
p174
aa(lp175
I01
aVPower Management
p176
aVBKC
p177
aVPI_Powermanagemen_Turbo_SoCwatch_W
p178
aa(lp179
I01
aVPower Management
p180
aVBKC
p181
aVPI_Powermanagemen_Pstate_SoCwatch_L
p182
aa(lp183
I01
aVPower Management
p184
aVBKC
p185
aVPI_Powermanagement_WakeupS4ByRTC_W
p186
aa(lp187
I01
aVPower Management
p188
aVBKC
p189
aVPI_Powermanagemen_Pstate_SoCwatch_W
p190
aa(lp191
I01
aVPower Management
p192
aVBKC
p193
aVPI_Powermanagemen_Turbo_SoCwatch_L
p194
aa(lp195
I01
aVPower Management
p196
aVBKC
p197
aVPI_Powermanagement_WakeupS4ByRTC_L
p198
aa(lp199
I01
aVPower Management
p200
aVBKC
p201
aVPI_Powermanagement_S4_10cycles_W
p202
aa(lp203
I01
aVPower Management
p204
aVBKC
p205
aVPI_Powermanagement_Graceful_Shutdown_W
p206
aa(lp207
I01
aVPower Management
p208
aVBKC
p209
aVPI_Powermanagement_Graceful_Shutdown_L
p210
aa(lp211
I01
aVPower Management
p212
aVBKC
p213
aVPI_Powermanagement_DC_10cycles_L
p214
aa(lp215
I01
aVPower Management
p216
aVBKC
p217
aVPI_Powermanagemen_Cstate_SoCwatch_W
p218
aa(lp219
I01
aVPower Management
p220
aVBKC
p221
aVPI_Powermanagement_WakeupS5ByRTC_L
p222
aa(lp223
I01
aVPower Management
p224
aVBKC
p225
aVPI_Powermanagement_WakeupS5ByRTC_W
p226
aa(lp227
I01
aVPower Management
p228
aVBKC
p229
aVPI_Powermanagement_ForceShutdown_W
p230
aa(lp231
I01
aVPower Management
p232
aVBKC
p233
aVPI_Powermanagement_S4StateCheck_W
p234
aa(lp235
I01
aVPower Management
p236
aVBKC
p237
aVPI_Powermanagement_AC_10cycles_L
p238
aa(lp239
I01
aVPower Management
p240
aVBKC
p241
aVPI_Powermanagemen_Cstate_SoCwatch_L
p242
aa(lp243
I01
aVPower Management
p244
aVBKC
p245
aVPI_Powermanagement_AC_10cycles_W
p246
aa(lp247
I01
aVPower Management
p248
aVBKC
p249
aVPI_Powermanagement_S4StateCheck_L
p250
aa(lp251
I01
aVPower Management
p252
aVBKC
p253
aVPI_Powermanagement_DC_10cycles_W
p254
aa(lp255
I01
aVPower Management
p256
aVBKC
p257
aVPI_Powermanagement_ForceShutdown_L
p258
aa(lp259
I01
aVPower Management
p260
aVBKC
p261
aVPI_Powermanagement_Reboot_10cycles_W
p262
aa(lp263
I01
aVPower Management
p264
aVBKC
p265
aVPI_Powermanagement_Reboot_10cycles_L
p266
aa(lp267
I01
aVPower Management
p268
aVBKC
p269
aVPI_Powermanagement_S4_10cycles_L
p270
aa(lp271
I01
aVProcessor
p272
aVBKC
p273
aVPI_Processor_LinPack_Stress_W
p274
aa(lp275
I01
aVProcessor
p276
aVBKC
p277
aVPI_Processor_Prime95_Stress_L
p278
aa(lp279
I01
aVProcessor
p280
aVBKC
p281
aVPI_Processor_CPUInfo_W
p282
aa(lp283
I01
aVProcessor
p284
aVBKC
p285
aVPI_Processor_CPUInfo_L
p286
aa(lp287
I01
aVProcessor
p288
aVBKC
p289
aVPI_Processor_IntelBurnTest_Stress_W
p290
aa(lp291
I01
aVQAT
p292
aVBKC
p293
aVPI_QAT_QAT_installation_L
p294
aa(lp295
I01
aVQAT
p296
aVBKC
p297
aVPI_QAT_StatusCheck_L
p298
aa(lp299
I01
aVQAT
p300
aVBKC
p301
aVPI_QAT_signOfLifeTests_UserSpace_L
p302
aa(lp303
g31
aVRAS
p304
aVBKC
p305
aVPI_RAS_Command and Address Parity Error Injection_W_R_MEM06
p306
aa(lp307
g31
aVRAS
p308
aVBKC
p309
aVPI_RAS_Memory Demand Scrubbing_W_R_MEM08
p310
aa(lp311
g31
aVRAS
p312
aVBKC
p313
aVPI_RAS_Memory Patrol Scrubbing_W_R_MEM08
p314
aa(lp315
g31
aVRAS
p316
aVBKC
p317
aVPI_RAS_Error reporting_AER_PCIe_S_CPU10
p318
aa(lp319
g31
aVRAS
p320
aVBKC
p321
aVPI_RAS_Memory SDDC_W_R_MEM01
p322
aa(lp323
g31
aVRAS
p324
aVBKC
p325
aVPI_RAS_Error reporting_Memory Correctable Error_W
p326
aa(lp327
g31
aVRAS
p328
aVBKC
p329
aVPI_RAS_Faulty DIMM Isolation with legacy MCA mode_W_S_SYS01
p330
aa(lp331
I01
aVSecurity
p332
aVBKC
p333
aVPI_Security_PTT_General Test_W
p334
aa(lp335
g31
aVSecurity
p336
aVBKC
p337
aVPI_Security_TPM2.0 PCR value check_PCR1_W
p338
aa(lp339
I01
aVSecurity
p340
aVBKC
p341
aVPI_Security_Security_Boot_OS_Install_Boot_Check_L
p342
aa(lp343
I01
aVSecurity
p344
aVBKC
p345
aVPI_Security_Security_Boot_OS_Install_Boot_Check_W
p346
aa(lp347
I01
aVSecurity
p348
aVBKC
p349
aVPI_Security_TXT_TPM2.0_SECRETS_L
p350
aa(lp351
g31
aVSecurity
p352
aVBKC
p353
aVPI_Security_TPM2.0 PCR value check_PCR0_W
p354
aa(lp355
g31
aVSecurity
p356
aVBKC
p357
aVPI_Security_TPM2.0_BitLocker_BIOS version change_UEFI_W
p358
aa(lp359
g31
aVSecurity
p360
aVBKC
p361
aVPI_Security_TPM2.0_BitLocker_Decryption_W
p362
aa(lp363
g31
aVSecurity
p364
aVBKC
p365
aVPI_Security_PPIx_UC12_PTT_Owner_Clear_Only_L
p366
aa(lp367
g31
aVSecurity
p368
aVBKC
p369
aVPI_Security_TPM2.0 PCR value check_PCR5_W
p370
aa(lp371
g31
aVSecurity
p372
aVBKC
p373
aVPI_Security_TPM2.0 PCR value consistent check_W
p374
aa(lp375
g31
aVSecurity
p376
aVBKC
p377
aVPI_Security_PPIx_UC1_Discover_TXT_TPM_Status_L
p378
aa(lp379
I01
aVSecurity
p380
aVBKC
p381
aVPI_Security_TXT_TPM2.0_Simple Provisioning [PS AUX Index]_L
p382
aa(lp383
g31
aVSecurity
p384
aVBKC
p385
aVPI_Security_TPM2.0_ACPI table support for TPM v2.0_W
p386
aa(lp387
g31
aVSecurity
p388
aVBKC
p389
aVPI_Security_PPIx_UC13_PTT_Clear_and_PTT_Activation_L
p390
aa(lp391
g31
aVSecurity
p392
aVBKC
p393
aVPI_Security_TPM2.0 PCR value check_General_W
p394
aa(lp395
g31
aVSecurity
p396
aVBKC
p397
aVPI_Security_TPM2.0_General Test_W
p398
aa(lp399
g31
aVSecurity
p400
aVBKC
p401
aVPI_Security_TPM2.0 PCR value check_PCR4_W
p402
aa(lp403
g31
aVSecurity
p404
aVBKC
p405
aVPI_Security_TPM2.0_BitLocker_Encryption _W
p406
aa(lp407
I01
aVSecurity
p408
aVBKC
p409
aVPI_Security_PTT_Clear_W
p410
aa(lp411
I01
aVSecurity
p412
aVBKC
p413
aVPI_Security_TPM2.0 PCR value check_PCR2_W
p414
aa(lp415
g31
aVSecurity
p416
aVBKC
p417
aVPI_Security_PPIx_UC11_Enable_TXT_PTT_L
p418
aa(lp419
g31
aVSecurity
p420
aVBKC
p421
aVPI_Security_TPM2.0 PCR0 consistence check on multiple boards_W
p422
aa(lp423
I01
aVSecurity
p424
aVBKC
p425
aVPI_Security_TPM2.0 Clear_W
p426
aa(lp427
g31
aVSecurity
p428
aVBKC
p429
aVPI_Security_PTT_Enable_W
p430
aa(lp431
I01
aVSecurity
p432
aVBKC
p433
aVPI_Security_TXT_PTT_Trusted Boot_measured launch_in_RHEL7.2_L
p434
aa(lp435
I01
aVSecurity
p436
aVBKC
p437
aVPI_Security_TXT_TPM2.0_TXTINFO_L
p438
aa(lp439
I01
aVSecurity
p440
aVBKC
p441
aVPI_Security_TXT_TPM2.0_GETSEC_L
p442
aa(lp443
I01
aVSecurity
p444
aVBKC
p445
aVPI_Security_TXT_TPM2.0_Trusted Boot_measured launch_in_RHEL7.2_L
p446
aa(lp447
g31
aVStorage
p448
aVBKC
p449
aVPI_Storage_EfiRAID_sSATA_W
p450
aa(lp451
g31
aVStorage
p452
aVBKC
p453
aVPI_Storage_RSTeEfiRAID_VMD_W
p454
aa(lp455
g31
aVStorage
p456
aVBKC
p457
aVPI_Storage_RAID_sSATA_L
p458
aa(lp459
g31
aVStorage
p460
aVBKC
p461
aVPI_Storage_OSInstallationOnSATARAID_W
p462
aa(lp463
g31
aVStorage
p464
aVBKC
p465
aVPI_Storage_BootingToNVMe_W
p466
aa(lp467
g31
aVStorage
p468
aVBKC
p469
aVPI_Storage_RAID_VMD_L
p470
aa(lp471
g31
aVStorage
p472
aVBKC
p473
aVPI_Storage_SATAAHCILinkSpeedCheck_W
p474
aa(lp475
g31
aVStorage
p476
aVBKC
p477
aVPI_Storage_SATAAHCILinkSpeedCheck_L
p478
aa(lp479
g31
aVStorage
p480
aVBKC
p481
aVPI_Storage_BootingToNVMe_VMD_W
p482
aa(lp483
g31
aVStorage
p484
aVBKC
p485
aVPI_Storage_BootingToVMD_RHEL_L
p486
aa(lp487
g31
aVStorage
p488
aVBKC
p489
aVPI_Storage_SATAAHCIConfigCheck_W
p490
aa(lp491
g31
aVStorage
p492
aVBKC
p493
aVPI_Storage_LegacyRAID_RAIDConfiguration_W
p494
aa(lp495
g31
aVStorage
p496
aVBKC
p497
aVPI_Storage_SATAAHCIConfigCheck_L
p498
aa(lp499
I01
aVStress & Stability
p500
aVBKC
p501
aVPI_Stress_CPUGPU3DMark_W
p502
aa(lp503
I01
aVStress & Stability
p504
aVBKC
p505
aVPI_Stress_BurnInTestAllCfg_L
p506
aa(lp507
I01
aVStress & Stability
p508
aVBKC
p509
aVPI_Stress_BurnInTestAllCfg_W
p510
aa(lp511
g31
aVStress & Stability
p512
aVBKC
p513
aVPI_Stability_ColdBootS5_UEFI
p514
aa(lp515
I01
aVStress & Stability
p516
aVBKC
p517
aVPI_Stress_IOMemCPULOM_W
p518
aa(lp519
I01
aVStress & Stability
p520
aVBKC
p521
aVPI_Stress_IOMemCPULOM_L
p522
aa(lp523
I01
aVStress & Stability
p524
aVBKC
p525
aVPI_Stability_Idle_L
p526
aa(lp527
I01
aVStress & Stability
p528
aVBKC
p529
aVPI_Stress_CPUGPU_L
p530
aa(lp531
I01
aVStress & Stability
p532
aVBKC
p533
aVPI_Stability_Idle_W
p534
aa(lp535
I01
aVStress & Stability
p536
aVBKC
p537
aVPI_Stability_WarmBootCycling_W
p538
aa(lp539
g31
aVStress & Stability
p540
aVBKC
p541
aVPI_Stability_ColdBootG3_UEFI
p542
aa(lp543
I01
aVStress & Stability
p544
aVBKC
p545
aVPI_Stability_WarmBootCycling_L
p546
aa(lp547
g31
aVUSB
p548
aVBKC
p549
aVPI_USB_USB3BenchmarkingBackwardsCompatibility_W
p550
aa(lp551
g31
aVUSB
p552
aVBKC
p553
aVPI_USB_DetectionAndHotPlugUSB20_W
p554
aa(lp555
g31
aVUSB
p556
aVBKC
p557
aVPI_USB_USB3BulkTransferReliabilityBackwardsCompatibility_W
p558
aa(lp559
g31
aVUSB
p560
aVBKC
p561
aVPI_USB_DetectionAndHotPlugUSB20_L
p562
aa(lp563
g31
aVUSB
p564
aVBKC
p565
aVPI_USB_RearPanel_L
p566
aa(lp567
g31
aVUSB
p568
aVBKC
p569
aVPI_USB_RearPanel_W
p570
aa(lp571
g31
aVUSB
p572
aVBKC
p573
aVPI_USB_USBHub_L
p574
aa(lp575
g31
aVUSB
p576
aVBKC
p577
aVPI_USB_USBHub_W
p578
aa(lp579
g31
aVVideo
p580
aVBKC
p581
aVGFX_resolution_checkout_L
p582
aa(lp583
g31
aVVideo
p584
aVBKC
p585
aVGFX_resolution_checkout_W
p586
aa(lp587
g31
aVVirtualization
p588
aVBKC
p589
aVPI_Virtualization_KVMStress_L
p590
aa(lp591
g31
aVVirtualization
p592
aVBKC
p593
aVPI_VirtualizationDevicesDriverUpdate_V
p594
aa(lp595
g31
aVVirtualization
p596
aVBKC
p597
aVPI_VirtualizationEnableIntelNetworkingdriverForVMDQ_V
p598
aa(lp599
I01
aVVirtualization
p600
aVBKC
p601
aVPI_Virtualization_MaximumVMDQGenerate_W
p602
aa(lp603
I01
aVVirtualization
p604
aVBKC
p605
aVPI_Virtualization_MaximumSR-IOVGenerate_L
p606
aa(lp607
I01
aVVirtualization
p608
aVBKC
p609
aVPI_Virtualization_HyperVBasicFunctionality_W
p610
aa(lp611
g31
aVVirtualization
p612
aVBKC
p613
aVPI_VirtualizationLOMPass-through_V
p614
aa(lp615
g31
aVVirtualization
p616
aVBKC
p617
aVPI_Virtualization_PassThroughUSB_L
p618
aa(lp619
g31
aVVirtualization
p620
aVBKC
p621
aVPI_Virtualization_PassThroughUSB_W
p622
aa(lp623
g31
aVVirtualization
p624
aVBKC
p625
aVPI_Virtualization_HyperVStress_W
p626
aa(lp627
I01
aVVirtualization
p628
aVBKC
p629
aVPI_Virtualization_VMDQFunctionCheck_W
p630
aa(lp631
g31
aVVirtualization
p632
aVBKC
p633
aVPI_VirtualizationStoragePass-through_V
p634
aa(lp635
I01
aVVirtualization
p636
aVBKC
p637
aVPI_Virtualization_KVMBasicFunctionality_L
p638
aa(lp639
I01
aVVirtualization
p640
aVBKC
p641
aVPI_Virtualization_SR-IOVFunctionCheck_L
p642
aa(lp643
g31
aVVirtualization
p644
aVBKC
p645
aVPI_Virtualization_PassThroughNetwork_L
p646
aa(lp647
g31
aVVirtualization
p648
aVBKC
p649
aVPI_Virtualization_PassThroughNetwork_W
p650
aa(lp651
I01
aVWHQL
p652
aVBKC
p653
aVSystem - PNP (disable and enable) with IO Before and After (Reliability)
p654
aa(lp655
I01
aVWHQL
p656
aVBKC
p657
aVTPM 2.0 UEFI Preboot Interface Test
p658
aa(lp659
I01
aVWHQL
p660
aVBKC
p661
aVSystem - Embedded Signature Verification
p662
aa(lp663
I01
aVWHQL
p664
aVBKC
p665
aVCrashdump Support Test (LOGO)
p666
aa(lp667
I01
aVWHQL
p668
aVBKC
p669
aVTPM 2.0 Core Provisioning Test
p670
aa(lp671
I01
aVWHQL
p672
aVBKC
p673
aVTPM 2.0 - NV Storage, Policy, Error Handling and Attestation
p674
aa(lp675
I01
aVWHQL
p676
aVBKC
p677
aVIPMI
p678
aa(lp679
I01
aVWHQL
p680
aVBKC
p681
aVTPM 2.0 TCG Physical Presence Interface 1.3 Test
p682
aa(lp683
I01
aVWHQL
p684
aVBKC
p685
aVTPM Attestation Test
p686
aa(lp687
I01
aVWHQL
p688
aVBKC
p689
aVLoadGen Server Stress - Run Last - Reset Machine Policies
p690
aa(lp691
I01
aVWHQL
p692
aVBKC
p693
aVWDDM PnPStopModeSwitch Test
p694
aa(lp695
I01
aVWHQL
p696
aVBKC
p697
aVxHCI Debug Capability Compliance (Logo)
p698
aa(lp699
I01
aVWHQL
p700
aVBKC
p701
aVWatchdog Timer Test
p702
aa(lp703
I01
aVWHQL
p704
aVBKC
p705
aVSecure Boot Manual Logo Test
p706
aa(lp707
I01
aVWHQL
p708
aVBKC
p709
aVTPM 2.0 - Required Security Patches Tests
p710
aa(lp711
I01
aVWHQL
p712
aVBKC
p713
aVVerify IOMMU presence and configuration
p714
aa(lp715
I01
aVWHQL
p716
aVBKC
p717
aVVerify processor virtualization support
p718
aa(lp719
I01
aVWHQL
p720
aVBKC
p721
aVVerify virtualized environment
p722
aa(lp723
I01
aVWHQL
p724
aVBKC
p725
aVTPM 2.0 - Stress
p726
aa(lp727
I01
aVWHQL
p728
aVBKC
p729
aVAssurance AQ
p730
aa(lp731
I01
aVWHQL
p732
aVBKC
p733
aVWindows System Check For WDDM
p734
aa(lp735
I01
aVWHQL
p736
aVBKC
p737
aVUSB3 Termination
p738
aa(lp739
I01
aVWHQL
p740
aVBKC
p741
aVWindows Client System Check For WDDM 1.3 Display Driver Support
p742
aa(lp743
I01
aVWHQL
p744
aVBKC
p745
aVTPM 2.0 - Supplemental test
p746
aa(lp747
I01
aVWHQL
p748
aVBKC
p749
aVSystem - Sleep with IO Before and After (Reliability SysFund)
p750
aa(lp751
I01
aVWHQL
p752
aVBKC
p753
aVTPM Based Virtual Smart Card Interface Test
p754
aa(lp755
I01
aVWHQL
p756
aVBKC
p757
aVWGF Feature Level 9.3 Support
p758
aa(lp759
I01
aVWHQL
p760
aVBKC
p761
aVBitLocker Tpm+PIN+ USB and Recovery Password tests for NON ARM devices
p762
aa(lp763
I01
aVWHQL
p764
aVBKC
p765
aVLoadGen Server Stress - Run First - Set Machine Policies
p766
aa(lp767
I01
aVWHQL
p768
aVBKC
p769
aVWGF Feature Level 9.3 Support (WoW64)
p770
aa(lp771
I01
aVWHQL
p772
aVBKC
p773
aVSecure Boot Logo Test
p774
aa(lp775
I01
aVWHQL
p776
aVBKC
p777
aVKeDelayExecutionThread Test
p778
aa(lp779
I01
aVWHQL
p780
aVBKC
p781
aVBitLocker Drive Encryption USB BIOS Logo Test
p782
aa(lp783
I01
aVWHQL
p784
aVBKC
p785
aVTPM 2.0 - Cryptographic Operations and RNG
p786
aa(lp787
I01
aVWHQL
p788
aVBKC
p789
aVVerify Device Driver Is WDDM
p790
aa(lp791
I01
aVWHQL
p792
aVBKC
p793
aVTPM 2.0 - Reliability
p794
aa(lp795
I01
aVWHQL
p796
aVBKC
p797
aVTPM 2.0 - Functional
p798
aa(lp799
I01
aVWHQL
p800
aVBKC
p801
aVProfile Interrupt Test
p802
aa(lp803
I01
aVWHQL
p804
aVBKC
p805
aVTPM Extend Operation Performance
p806
aa(lp807
I01
aVWHQL
p808
aVBKC
p809
aVSecureBootUEFIOverPXE
p810
aa(lp811
I01
aVWHQL
p812
aVBKC
p813
aVBoot Test (SYSTEM)
p814
aa(lp815
I01
aVWHQL
p816
aVBKC
p817
aVTPM 2.0 - Clock Tests
p818
aa(lp819
I01
aVWHQL
p820
aVBKC
p821
aVWDDM PnPStop Test - Update and Rollback
p822
aa(lp823
I01
aVWHQL
p824
aVBKC
p825
aVClock Interrupt Test
p826
aa(lp827
I01
aVWHQL
p828
aVBKC
p829
aVDisk Stress (SYSTEM)
p830
aa(lp831
I01
aVWHQL
p832
aVBKC
p833
aVIPMIReliability
p834
aa(lp835
I01
aVWHQL
p836
aVBKC
p837
aVTPM 2.0 - Raw Mode Commands
p838
aa(lp839
I01
aVWHQL
p840
aVBKC
p841
aVTPM Platform Crypto Provider Key Storage Provider Test
p842
aa(lp843
I01
aVWHQL
p844
aVBKC
p845
aVDebug Capability Test (Logo)
p846
aa(lp847
I01
aVWHQL
p848
aVBKC
p849
aVTPM 2.0 - Self Test
p850
aa(lp851
I01
aVWHQL
p852
aVBKC
p853
aVUSB Exposed Port System Test
p854
aa(lp855
I01
aVWHQL
p856
aVBKC
p857
aVTPM 2.0 Quality Test
p858
aa(lp859
I01
aVWHQL
p860
aVBKC
p861
aVSecureBootUEFI
p862
aa(lp863
I01
aVWHQL
p864
aVBKC
p865
aVQPC Validation Test
p866
aa(lp867
I01
aVWHQL
p868
aVBKC
p869
aVSigned Driver Check (CheckLogo)
p870
aa(lp871
I01
aVWHQL
p872
aVBKC
p873
aVBoot from USB (ServerOperating System)
p874
aa.